target datalayout = "e-m:e-p270:32:32-p271:32:32-p272:64:64-i64:64-i128:128-f80:128-n8:16:32:64-S128"
target triple = "x86_64-pc-linux-gnu"

%struct.KLVPacket = type { [16 x i8], i64, i64, i64 }
%struct.MXFContext = type { ptr, ptr, i32, i32, ptr, i32, ptr, i32, [26 x %struct.MXFMetadataSetGroup], ptr, ptr, ptr, i32, i64, %struct.KLVPacket, i32, ptr, i32, i64, i32, i32, ptr, i32 }
%struct.MXFMetadataSetGroup = type { ptr, i32 }

@mxf_klv_key = internal constant [4 x i8] c"\06\0E+4", align 1

; Function Attrs: alwaysinline nounwind willreturn memory(none) uwtable
define internal i32 @av_bswap32(i32 noundef %0) #6 {
  %2 = alloca i32, align 4
  store i32 %0, ptr %2, align 4, !tbaa !47
  %3 = load i32, ptr %2, align 4, !tbaa !47
  %4 = shl i32 %3, 8
  %5 = and i32 %4, 65280
  %6 = load i32, ptr %2, align 4, !tbaa !47
  %7 = lshr i32 %6, 8
  %8 = and i32 %7, 255
  %9 = or i32 %5, %8
  %10 = shl i32 %9, 16
  %11 = load i32, ptr %2, align 4, !tbaa !47
  %12 = lshr i32 %11, 16
  %13 = shl i32 %12, 8
  %14 = and i32 %13, 65280
  %15 = load i32, ptr %2, align 4, !tbaa !47
  %16 = lshr i32 %15, 16
  %17 = lshr i32 %16, 8
  %18 = and i32 %17, 255
  %19 = or i32 %14, %18
  %20 = or i32 %10, %19
  ret i32 %20
}

; Function Attrs: nounwind uwtable
define internal i64 @klv_decode_ber_length(ptr noundef %0, ptr noundef %1) #0 {
  %3 = alloca i64, align 8
  %4 = alloca ptr, align 8
  %5 = alloca ptr, align 8
  %6 = alloca i64, align 8
  %7 = alloca i32, align 4
  %8 = alloca i32, align 4
  store ptr %0, ptr %4, align 8, !tbaa !138
  store ptr %1, ptr %5, align 8, !tbaa !282
  call void @llvm.lifetime.start.p0(i64 8, ptr %6) #13
  %9 = load ptr, ptr %4, align 8, !tbaa !138
  %10 = call i32 @avio_r8(ptr noundef %9)
  %11 = sext i32 %10 to i64
  store i64 %11, ptr %6, align 8, !tbaa !37
  %12 = load i64, ptr %6, align 8, !tbaa !37
  %13 = and i64 %12, 128
  %14 = icmp ne i64 %13, 0
  br i1 %14, label %15, label %45

15:                                               ; preds = %2
  call void @llvm.lifetime.start.p0(i64 4, ptr %7) #13
  %16 = load i64, ptr %6, align 8, !tbaa !37
  %17 = and i64 %16, 127
  %18 = trunc i64 %17 to i32
  store i32 %18, ptr %7, align 4, !tbaa !47
  %19 = load i32, ptr %7, align 4, !tbaa !47
  %20 = icmp sgt i32 %19, 8
  br i1 %20, label %21, label %22

21:                                               ; preds = %15
  store i64 -1094995529, ptr %3, align 8
  store i32 1, ptr %8, align 4
  br label %42

22:                                               ; preds = %15
  %23 = load ptr, ptr %5, align 8, !tbaa !282
  %24 = icmp ne ptr %23, null
  br i1 %24, label %25, label %29

25:                                               ; preds = %22
  %26 = load i32, ptr %7, align 4, !tbaa !47
  %27 = add nsw i32 %26, 1
  %28 = load ptr, ptr %5, align 8, !tbaa !282
  store i32 %27, ptr %28, align 4, !tbaa !47
  br label %29

29:                                               ; preds = %25, %22
  store i64 0, ptr %6, align 8, !tbaa !37
  br label %30

30:                                               ; preds = %34, %29
  %31 = load i32, ptr %7, align 4, !tbaa !47
  %32 = add nsw i32 %31, -1
  store i32 %32, ptr %7, align 4, !tbaa !47
  %33 = icmp ne i32 %31, 0
  br i1 %33, label %34, label %41

34:                                               ; preds = %30
  %35 = load i64, ptr %6, align 8, !tbaa !37
  %36 = shl i64 %35, 8
  %37 = load ptr, ptr %4, align 8, !tbaa !138
  %38 = call i32 @avio_r8(ptr noundef %37)
  %39 = sext i32 %38 to i64
  %40 = or i64 %36, %39
  store i64 %40, ptr %6, align 8, !tbaa !37
  br label %30, !llvm.loop !283

41:                                               ; preds = %30
  store i32 0, ptr %8, align 4
  br label %42

42:                                               ; preds = %41, %21
  call void @llvm.lifetime.end.p0(i64 4, ptr %7) #13
  %43 = load i32, ptr %8, align 4
  switch i32 %43, label %57 [
    i32 0, label %44
  ]

44:                                               ; preds = %42
  br label %51

45:                                               ; preds = %2
  %46 = load ptr, ptr %5, align 8, !tbaa !282
  %47 = icmp ne ptr %46, null
  br i1 %47, label %48, label %50

48:                                               ; preds = %45
  %49 = load ptr, ptr %5, align 8, !tbaa !282
  store i32 1, ptr %49, align 4, !tbaa !47
  br label %50

50:                                               ; preds = %48, %45
  br label %51

51:                                               ; preds = %50, %44
  %52 = load i64, ptr %6, align 8, !tbaa !37
  %53 = icmp ugt i64 %52, 9223372036854775807
  br i1 %53, label %54, label %55

54:                                               ; preds = %51
  store i64 -1094995529, ptr %3, align 8
  store i32 1, ptr %8, align 4
  br label %57

55:                                               ; preds = %51
  %56 = load i64, ptr %6, align 8, !tbaa !37
  store i64 %56, ptr %3, align 8
  store i32 1, ptr %8, align 4
  br label %57

57:                                               ; preds = %55, %54, %42
  call void @llvm.lifetime.end.p0(i64 8, ptr %6) #13
  %58 = load i64, ptr %3, align 8
  ret i64 %58
}

; Function Attrs: alwaysinline nounwind uwtable
define internal i64 @avio_tell(ptr noundef %0) #3 {
  %2 = alloca ptr, align 8
  store ptr %0, ptr %2, align 8, !tbaa !138
  %3 = load ptr, ptr %2, align 8, !tbaa !138
  %4 = call i64 @avio_seek(ptr noundef %3, i64 noundef 0, i32 noundef 1)
  ret i64 %4
}

; Function Attrs: nounwind uwtable
define internal i32 @mxf_read_sync_klv(ptr noundef %0) #0 {
  %2 = alloca i32, align 4
  %3 = alloca ptr, align 8
  %4 = alloca i32, align 4
  %5 = alloca i32, align 4
  store ptr %0, ptr %3, align 8, !tbaa !138
  call void @llvm.lifetime.start.p0(i64 4, ptr %4) #13
  %6 = load ptr, ptr %3, align 8, !tbaa !138
  %7 = call i32 @avio_rb32(ptr noundef %6)
  store i32 %7, ptr %4, align 4, !tbaa !47
  %8 = load i32, ptr %4, align 4, !tbaa !47
  %9 = load i32, ptr @mxf_klv_key, align 1, !tbaa !15
  %10 = call i32 @av_bswap32(i32 noundef %9) #15
  %11 = icmp eq i32 %8, %10
  br i1 %11, label %12, label %13

12:                                               ; preds = %1
  store i32 1, ptr %2, align 4
  store i32 1, ptr %5, align 4
  br label %32

13:                                               ; preds = %1
  br label %14

14:                                               ; preds = %30, %13
  %15 = load ptr, ptr %3, align 8, !tbaa !138
  %16 = call i32 @avio_feof(ptr noundef %15)
  %17 = icmp ne i32 %16, 0
  %18 = xor i1 %17, true
  br i1 %18, label %19, label %31

19:                                               ; preds = %14
  %20 = load i32, ptr %4, align 4, !tbaa !47
  %21 = shl i32 %20, 8
  %22 = load ptr, ptr %3, align 8, !tbaa !138
  %23 = call i32 @avio_r8(ptr noundef %22)
  %24 = or i32 %21, %23
  store i32 %24, ptr %4, align 4, !tbaa !47
  %25 = load i32, ptr %4, align 4, !tbaa !47
  %26 = load i32, ptr @mxf_klv_key, align 1, !tbaa !15
  %27 = call i32 @av_bswap32(i32 noundef %26) #15
  %28 = icmp eq i32 %25, %27
  br i1 %28, label %29, label %30

29:                                               ; preds = %19
  store i32 1, ptr %2, align 4
  store i32 1, ptr %5, align 4
  br label %32

30:                                               ; preds = %19
  br label %14, !llvm.loop !281

31:                                               ; preds = %14
  store i32 0, ptr %2, align 4
  store i32 1, ptr %5, align 4
  br label %32

32:                                               ; preds = %31, %29, %12
  call void @llvm.lifetime.end.p0(i64 4, ptr %4) #13
  %33 = load i32, ptr %2, align 4
  ret i32 %33
}

; Function Attrs: nounwind uwtable
define internal i32 @klv_read_packet(ptr noundef %0, ptr noundef %1, ptr noundef %2) #0 {
  %4 = alloca i32, align 4
  %5 = alloca ptr, align 8
  %6 = alloca ptr, align 8
  %7 = alloca ptr, align 8
  %8 = alloca i64, align 8
  %9 = alloca i64, align 8
  %10 = alloca i32, align 4
  %11 = alloca i32, align 4
  store ptr %0, ptr %5, align 8, !tbaa !35
  store ptr %1, ptr %6, align 8, !tbaa !143
  store ptr %2, ptr %7, align 8, !tbaa !138
  call void @llvm.lifetime.start.p0(i64 8, ptr %8) #13
  call void @llvm.lifetime.start.p0(i64 8, ptr %9) #13
  call void @llvm.lifetime.start.p0(i64 4, ptr %10) #13
  %12 = load ptr, ptr %7, align 8, !tbaa !138
  %13 = call i32 @mxf_read_sync_klv(ptr noundef %12)
  %14 = icmp ne i32 %13, 0
  br i1 %14, label %16, label %15

15:                                               ; preds = %3
  store i32 -1094995529, ptr %4, align 4
  store i32 1, ptr %11, align 4
  br label %79

16:                                               ; preds = %3
  %17 = load ptr, ptr %7, align 8, !tbaa !138
  %18 = call i64 @avio_tell(ptr noundef %17)
  %19 = sub nsw i64 %18, 4
  %20 = load ptr, ptr %6, align 8, !tbaa !143
  %21 = getelementptr inbounds nuw %struct.KLVPacket, ptr %20, i32 0, i32 1
  store i64 %19, ptr %21, align 8, !tbaa !51
  %22 = load ptr, ptr %6, align 8, !tbaa !143
  %23 = getelementptr inbounds nuw %struct.KLVPacket, ptr %22, i32 0, i32 1
  %24 = load i64, ptr %23, align 8, !tbaa !51
  %25 = load ptr, ptr %5, align 8, !tbaa !35
  %26 = getelementptr inbounds nuw %struct.MXFContext, ptr %25, i32 0, i32 15
  %27 = load i32, ptr %26, align 8, !tbaa !46
  %28 = sext i32 %27 to i64
  %29 = icmp slt i64 %24, %28
  br i1 %29, label %30, label %31

30:                                               ; preds = %16
  store i32 -1094995529, ptr %4, align 4
  store i32 1, ptr %11, align 4
  br label %79

31:                                               ; preds = %16
  %32 = load ptr, ptr %6, align 8, !tbaa !143
  %33 = getelementptr inbounds nuw %struct.KLVPacket, ptr %32, i32 0, i32 0
  %34 = getelementptr inbounds [16 x i8], ptr %33, i64 0, i64 0
  call void @llvm.memcpy.p0.p0.i64(ptr align 8 %34, ptr align 1 @mxf_klv_key, i64 4, i1 false)
  %35 = load ptr, ptr %7, align 8, !tbaa !138
  %36 = load ptr, ptr %6, align 8, !tbaa !143
  %37 = getelementptr inbounds nuw %struct.KLVPacket, ptr %36, i32 0, i32 0
  %38 = getelementptr inbounds [16 x i8], ptr %37, i64 0, i64 0
  %39 = getelementptr inbounds i8, ptr %38, i64 4
  %40 = call i32 @avio_read(ptr noundef %35, ptr noundef %39, i32 noundef 12)
  %41 = load ptr, ptr %7, align 8, !tbaa !138
  %42 = call i64 @klv_decode_ber_length(ptr noundef %41, ptr noundef %10)
  store i64 %42, ptr %8, align 8, !tbaa !37
  %43 = load i64, ptr %8, align 8, !tbaa !37
  %44 = icmp slt i64 %43, 0
  br i1 %44, label %45, label %48

45:                                               ; preds = %31
  %46 = load i64, ptr %8, align 8, !tbaa !37
  %47 = trunc i64 %46 to i32
  store i32 %47, ptr %4, align 4
  store i32 1, ptr %11, align 4
  br label %79

48:                                               ; preds = %31
  %49 = load i64, ptr %8, align 8, !tbaa !37
  %50 = load ptr, ptr %6, align 8, !tbaa !143
  %51 = getelementptr inbounds nuw %struct.KLVPacket, ptr %50, i32 0, i32 2
  store i64 %49, ptr %51, align 8, !tbaa !50
  %52 = load ptr, ptr %6, align 8, !tbaa !143
  %53 = getelementptr inbounds nuw %struct.KLVPacket, ptr %52, i32 0, i32 1
  %54 = load i64, ptr %53, align 8, !tbaa !51
  %55 = load i32, ptr %10, align 4, !tbaa !47
  %56 = sext i32 %55 to i64
  %57 = sub nsw i64 9223372036854775791, %56
  %58 = icmp sgt i64 %54, %57
  br i1 %58, label %59, label %60

59:                                               ; preds = %48
  store i32 -1094995529, ptr %4, align 4
  store i32 1, ptr %11, align 4
  br label %79

60:                                               ; preds = %48
  %61 = load ptr, ptr %6, align 8, !tbaa !143
  %62 = getelementptr inbounds nuw %struct.KLVPacket, ptr %61, i32 0, i32 1
  %63 = load i64, ptr %62, align 8, !tbaa !51
  %64 = add nsw i64 %63, 16
  %65 = load i32, ptr %10, align 4, !tbaa !47
  %66 = sext i32 %65 to i64
  %67 = add nsw i64 %64, %66
  store i64 %67, ptr %9, align 8, !tbaa !37
  %68 = load i64, ptr %9, align 8, !tbaa !37
  %69 = load i64, ptr %8, align 8, !tbaa !37
  %70 = sub nsw i64 9223372036854775807, %69
  %71 = icmp sgt i64 %68, %70
  br i1 %71, label %72, label %73

72:                                               ; preds = %60
  store i32 -1094995529, ptr %4, align 4
  store i32 1, ptr %11, align 4
  br label %79

73:                                               ; preds = %60
  %74 = load i64, ptr %9, align 8, !tbaa !37
  %75 = load i64, ptr %8, align 8, !tbaa !37
  %76 = add nsw i64 %74, %75
  %77 = load ptr, ptr %6, align 8, !tbaa !143
  %78 = getelementptr inbounds nuw %struct.KLVPacket, ptr %77, i32 0, i32 3
  store i64 %76, ptr %78, align 8, !tbaa !48
  store i32 0, ptr %4, align 4
  store i32 1, ptr %11, align 4
  br label %79

79:                                               ; preds = %73, %72, %59, %45, %30, %15
  call void @llvm.lifetime.end.p0(i64 4, ptr %10) #13
  call void @llvm.lifetime.end.p0(i64 8, ptr %9) #13
  call void @llvm.lifetime.end.p0(i64 8, ptr %8) #13
  %80 = load i32, ptr %4, align 4
  ret i32 %80
}