; Function Attrs: nounwind uwtable
define internal fastcc range(i32 -1094995529, 1) i32 @klv_read_packet(ptr noundef readonly captures(none) %0, ptr noundef nonnull %1, ptr noundef %2) unnamed_addr #1 {
  %4 = tail call i32 @avio_rb32(ptr noundef %2) #15
  %5 = icmp eq i32 %4, 101591860
  br i1 %5, label %.loopexit, label %.preheader.i

.preheader.i:                                     ; preds = %3, %7
  %.0.i = phi i32 [ %10, %7 ], [ %4, %3 ]
  %6 = tail call i32 @avio_feof(ptr noundef %2) #15
  %.not.i = icmp eq i32 %6, 0
  br i1 %.not.i, label %7, label %mxf_read_sync_klv.exit

7:                                                ; preds = %.preheader.i
  %8 = shl i32 %.0.i, 8
  %9 = tail call i32 @avio_r8(ptr noundef %2) #15
  %10 = or i32 %9, %8
  %11 = icmp eq i32 %10, 101591860
  br i1 %11, label %.loopexit, label %.preheader.i, !llvm.loop !309

.loopexit:                                        ; preds = %7, %3
  %12 = tail call i64 @avio_seek(ptr noundef %2, i64 noundef 0, i32 noundef 1) #15
  %13 = add nsw i64 %12, -4
  %14 = getelementptr inbounds nuw i8, ptr %1, i64 16
  store i64 %13, ptr %14, align 8, !tbaa !47
  %15 = getelementptr inbounds nuw i8, ptr %0, i64 552
  %16 = load i32, ptr %15, align 8, !tbaa !40
  %17 = sext i32 %16 to i64
  %18 = icmp slt i64 %13, %17
  br i1 %18, label %mxf_read_sync_klv.exit, label %19

19:                                               ; preds = %.loopexit
  store i32 875236870, ptr %1, align 8
  %20 = getelementptr inbounds nuw i8, ptr %1, i64 4
  %21 = tail call i32 @avio_read(ptr noundef %2, ptr noundef nonnull %20, i32 noundef 12) #15
  %22 = tail call i32 @avio_r8(ptr noundef %2) #15
  %23 = sext i32 %22 to i64
  %24 = and i32 %22, 128
  %.not.i23 = icmp eq i32 %24, 0
  br i1 %.not.i23, label %.loopexit.i, label %25

25:                                               ; preds = %19
  %26 = and i32 %22, 127
  %27 = icmp samesign ult i32 %26, 9
  br i1 %27, label %28, label %mxf_read_sync_klv.exit

28:                                               ; preds = %25
  %29 = add nuw nsw i32 %26, 1
  %.not2426.i = icmp eq i32 %26, 0
  br i1 %.not2426.i, label %klv_decode_ber_length.exit, label %.lr.ph.i

.lr.ph.i:                                         ; preds = %28, %.lr.ph.i
  %.01528.i = phi i32 [ %30, %.lr.ph.i ], [ %26, %28 ]
  %.127.i = phi i64 [ %34, %.lr.ph.i ], [ 0, %28 ]
  %30 = add nsw i32 %.01528.i, -1
  %31 = shl i64 %.127.i, 8
  %32 = tail call i32 @avio_r8(ptr noundef %2) #15
  %33 = sext i32 %32 to i64
  %34 = or i64 %31, %33
  %.not24.i = icmp eq i32 %30, 0
  br i1 %.not24.i, label %.loopexit.i, label %.lr.ph.i, !llvm.loop !283

.loopexit.i:                                      ; preds = %.lr.ph.i, %19
  %.024 = phi i32 [ 1, %19 ], [ %29, %.lr.ph.i ]
  %.2.i = phi i64 [ %23, %19 ], [ %34, %.lr.ph.i ]
  %.2.fr.i = freeze i64 %.2.i
  %35 = icmp slt i64 %.2.fr.i, 0
  br i1 %35, label %mxf_read_sync_klv.exit, label %klv_decode_ber_length.exit

klv_decode_ber_length.exit:                       ; preds = %28, %.loopexit.i
  %.1 = phi i32 [ %.024, %.loopexit.i ], [ 1, %28 ]
  %.118.i = phi i64 [ %.2.fr.i, %.loopexit.i ], [ 0, %28 ]
  %36 = getelementptr inbounds nuw i8, ptr %1, i64 24
  store i64 %.118.i, ptr %36, align 8, !tbaa !46
  %37 = load i64, ptr %14, align 8, !tbaa !47
  %38 = zext nneg i32 %.1 to i64
  %39 = sub nuw nsw i64 9223372036854775791, %38
  %40 = icmp sgt i64 %37, %39
  br i1 %40, label %mxf_read_sync_klv.exit, label %41

41:                                               ; preds = %klv_decode_ber_length.exit
  %42 = add nuw nsw i64 %38, 16
  %43 = add i64 %42, %37
  %44 = xor i64 %.118.i, 9223372036854775807
  %45 = icmp sgt i64 %43, %44
  br i1 %45, label %mxf_read_sync_klv.exit, label %46

46:                                               ; preds = %41
  %47 = add nsw i64 %43, %.118.i
  %48 = getelementptr inbounds nuw i8, ptr %1, i64 32
  store i64 %47, ptr %48, align 8, !tbaa !43
  br label %mxf_read_sync_klv.exit

mxf_read_sync_klv.exit:                           ; preds = %.preheader.i, %25, %.loopexit.i, %41, %klv_decode_ber_length.exit, %.loopexit, %46
  %.0 = phi i32 [ 0, %46 ], [ -1094995529, %.loopexit ], [ -1094995529, %klv_decode_ber_length.exit ], [ -1094995529, %41 ], [ -1094995529, %.loopexit.i ], [ -1094995529, %25 ], [ -1094995529, %.preheader.i ]
  ret i32 %.0
}